; Function Attrs: mustprogress nofree nounwind willreturn memory(read, inaccessiblemem: none) uwtable
define dso_local noundef i32 @_ZNK7cmValue7CompareES_(ptr noundef nonnull readonly align 8 captures(none) dereferenceable(8) %0, ptr readonly %1) local_unnamed_addr #4 align 2 personality ptr @__gxx_personality_v0 {
  %3 = load ptr, ptr %0, align 8, !tbaa !7
  %.not = icmp eq ptr %3, null
  br i1 %.not, label %4, label %5

4:                                                ; preds = %2
  %.not6 = icmp ne ptr %1, null
  %spec.select = sext i1 %.not6 to i32
  br label %_ZNKSt7__cxx1112basic_stringIcSt11char_traitsIcESaIcEE7compareERKS4_.exit

5:                                                ; preds = %2
  %.not5 = icmp eq ptr %1, null
  br i1 %.not5, label %_ZNKSt7__cxx1112basic_stringIcSt11char_traitsIcESaIcEE7compareERKS4_.exit, label %6

6:                                                ; preds = %5
  %7 = getelementptr inbounds nuw i8, ptr %3, i64 8
  %8 = load i64, ptr %7, align 8, !tbaa !11
  %9 = getelementptr inbounds nuw i8, ptr %1, i64 8
  %10 = load i64, ptr %9, align 8, !tbaa !11
  %.sroa.speculated.i = tail call i64 @llvm.umin.i64(i64 %10, i64 %8)
  %11 = icmp eq i64 %.sroa.speculated.i, 0
  br i1 %11, label %_ZNSt11char_traitsIcE7compareEPKcS2_m.exit.thread.i, label %_ZNSt11char_traitsIcE7compareEPKcS2_m.exit.i

_ZNSt11char_traitsIcE7compareEPKcS2_m.exit.i:     ; preds = %6
  %12 = load ptr, ptr %1, align 8, !tbaa !16
  %13 = load ptr, ptr %3, align 8, !tbaa !16
  %14 = tail call i32 @memcmp(ptr noundef %13, ptr noundef %12, i64 noundef %.sroa.speculated.i) #11
  %.not.i2 = icmp eq i32 %14, 0
  br i1 %.not.i2, label %_ZNSt11char_traitsIcE7compareEPKcS2_m.exit.thread.i, label %_ZNKSt7__cxx1112basic_stringIcSt11char_traitsIcESaIcEE7compareERKS4_.exit

_ZNSt11char_traitsIcE7compareEPKcS2_m.exit.thread.i: ; preds = %_ZNSt11char_traitsIcE7compareEPKcS2_m.exit.i, %6
  %15 = sub i64 %8, %10
  %spec.select7.i.i = tail call i64 @llvm.smax.i64(i64 %15, i64 -2147483648)
  %.08.i.i = tail call i64 @llvm.smin.i64(i64 %spec.select7.i.i, i64 2147483647)
  %.0.i6.i = trunc nsw i64 %.08.i.i to i32
  br label %_ZNKSt7__cxx1112basic_stringIcSt11char_traitsIcESaIcEE7compareERKS4_.exit

_ZNKSt7__cxx1112basic_stringIcSt11char_traitsIcESaIcEE7compareERKS4_.exit: ; preds = %4, %_ZNSt11char_traitsIcE7compareEPKcS2_m.exit.thread.i, %_ZNSt11char_traitsIcE7compareEPKcS2_m.exit.i, %5
  %.0 = phi i32 [ 1, %5 ], [ %14, %_ZNSt11char_traitsIcE7compareEPKcS2_m.exit.i ], [ %.0.i6.i, %_ZNSt11char_traitsIcE7compareEPKcS2_m.exit.thread.i ], [ %spec.select, %4 ]
  ret i32 %.0
}